target datalayout = "e-m:e-p270:32:32-p271:32:32-p272:64:64-i64:64-i128:128-f80:128-n8:16:32:64-S128"
target triple = "x86_64-pc-linux-gnu"

%struct.mock_srv_ctx = type { ptr, ptr, ptr, ptr, ptr, ptr, ptr, ptr, ptr, ptr, i32, ptr, i32, i32, i32 }

@.str = private unnamed_addr constant [35 x i8] c"../openssl/apps/lib/cmp_mock_srv.c\00", align 1

; Function Attrs: nounwind uwtable
define internal ptr @mock_srv_ctx_new() #0 {
  %1 = alloca ptr, align 8
  %2 = alloca ptr, align 8
  %3 = alloca i32, align 4
  call void @llvm.lifetime.start.p0(i64 8, ptr %2) #5
  %4 = call noalias ptr @CRYPTO_zalloc(i64 noundef 112, ptr noundef @.str, i32 noundef 53)
  store ptr %4, ptr %2, align 8, !tbaa !11
  %5 = load ptr, ptr %2, align 8, !tbaa !11
  %6 = icmp eq ptr %5, null
  br i1 %6, label %7, label %8

7:                                                ; preds = %0
  br label %18

8:                                                ; preds = %0
  %9 = call ptr @OSSL_CMP_PKISI_new()
  %10 = load ptr, ptr %2, align 8, !tbaa !11
  %11 = getelementptr inbounds nuw %struct.mock_srv_ctx, ptr %10, i32 0, i32 9
  store ptr %9, ptr %11, align 8, !tbaa !35
  %12 = icmp eq ptr %9, null
  br i1 %12, label %13, label %14

13:                                               ; preds = %8
  br label %18

14:                                               ; preds = %8
  %15 = load ptr, ptr %2, align 8, !tbaa !11
  %16 = getelementptr inbounds nuw %struct.mock_srv_ctx, ptr %15, i32 0, i32 10
  store i32 -1, ptr %16, align 8, !tbaa !36
  %17 = load ptr, ptr %2, align 8, !tbaa !11
  store ptr %17, ptr %1, align 8
  store i32 1, ptr %3, align 4
  br label %20

18:                                               ; preds = %13, %7
  %19 = load ptr, ptr %2, align 8, !tbaa !11
  call void @mock_srv_ctx_free(ptr noundef %19)
  store ptr null, ptr %1, align 8
  store i32 1, ptr %3, align 4
  br label %20

20:                                               ; preds = %18, %14
  call void @llvm.lifetime.end.p0(i64 8, ptr %2) #5
  %21 = load ptr, ptr %1, align 8
  ret ptr %21
}

; Function Attrs: nounwind uwtable
define dso_local ptr @ossl_cmp_mock_srv_new(ptr noundef %0, ptr noundef %1) #0 {
  %3 = alloca ptr, align 8
  %4 = alloca ptr, align 8
  %5 = alloca ptr, align 8
  %6 = alloca ptr, align 8
  %7 = alloca ptr, align 8
  %8 = alloca i32, align 4
  store ptr %0, ptr %4, align 8, !tbaa !39
  store ptr %1, ptr %5, align 8, !tbaa !32
  call void @llvm.lifetime.start.p0(i64 8, ptr %6) #5
  %9 = load ptr, ptr %4, align 8, !tbaa !39
  %10 = load ptr, ptr %5, align 8, !tbaa !32
  %11 = call ptr @OSSL_CMP_SRV_CTX_new(ptr noundef %9, ptr noundef %10)
  store ptr %11, ptr %6, align 8, !tbaa !4
  call void @llvm.lifetime.start.p0(i64 8, ptr %7) #5
  %12 = call ptr @mock_srv_ctx_new()
  store ptr %12, ptr %7, align 8, !tbaa !11
  %13 = load ptr, ptr %6, align 8, !tbaa !4
  %14 = icmp ne ptr %13, null
  br i1 %14, label %15, label %29

15:                                               ; preds = %2
  %16 = load ptr, ptr %7, align 8, !tbaa !11
  %17 = icmp ne ptr %16, null
  br i1 %17, label %18, label %29

18:                                               ; preds = %15
  %19 = load ptr, ptr %6, align 8, !tbaa !4
  %20 = load ptr, ptr %7, align 8, !tbaa !11
  %21 = call i32 @OSSL_CMP_SRV_CTX_init(ptr noundef %19, ptr noundef %20, ptr noundef @process_cert_request, ptr noundef @process_rr, ptr noundef @process_genm, ptr noundef @process_error, ptr noundef @process_certConf, ptr noundef @process_pollReq)
  %22 = icmp ne i32 %21, 0
  br i1 %22, label %23, label %29

23:                                               ; preds = %18
  %24 = load ptr, ptr %6, align 8, !tbaa !4
  %25 = call i32 @OSSL_CMP_SRV_CTX_init_trans(ptr noundef %24, ptr noundef @delayed_delivery, ptr noundef @clean_transaction)
  %26 = icmp ne i32 %25, 0
  br i1 %26, label %27, label %29

27:                                               ; preds = %23
  %28 = load ptr, ptr %6, align 8, !tbaa !4
  store ptr %28, ptr %3, align 8
  store i32 1, ptr %8, align 4
  br label %32

29:                                               ; preds = %23, %18, %15, %2
  %30 = load ptr, ptr %7, align 8, !tbaa !11
  call void @mock_srv_ctx_free(ptr noundef %30)
  %31 = load ptr, ptr %6, align 8, !tbaa !4
  call void @OSSL_CMP_SRV_CTX_free(ptr noundef %31)
  store ptr null, ptr %3, align 8
  store i32 1, ptr %8, align 4
  br label %32

32:                                               ; preds = %29, %27
  call void @llvm.lifetime.end.p0(i64 8, ptr %7) #5
  call void @llvm.lifetime.end.p0(i64 8, ptr %6) #5
  %33 = load ptr, ptr %3, align 8
  ret ptr %33
}