; Function Attrs: nounwind uwtable
define dso_local ptr @ossl_cmp_mock_srv_new(ptr noundef %0, ptr noundef %1) local_unnamed_addr #0 {
  %3 = tail call ptr @OSSL_CMP_SRV_CTX_new(ptr noundef %0, ptr noundef %1) #4
  %4 = tail call noalias ptr @CRYPTO_zalloc(i64 noundef 112, ptr noundef nonnull @.str, i32 noundef 53) #4
  %5 = icmp eq ptr %4, null
  br i1 %5, label %mock_srv_ctx_new.exit.thread, label %6

6:                                                ; preds = %2
  %7 = tail call ptr @OSSL_CMP_PKISI_new() #4
  %8 = getelementptr inbounds nuw i8, ptr %4, i64 72
  store ptr %7, ptr %8, align 8, !tbaa !24
  %9 = icmp eq ptr %7, null
  br i1 %9, label %mock_srv_ctx_free.exit.i, label %mock_srv_ctx_new.exit

mock_srv_ctx_free.exit.i:                         ; preds = %6
  tail call void @OSSL_CMP_PKISI_free(ptr noundef null) #4
  %10 = load ptr, ptr %4, align 8, !tbaa !4
  tail call void @X509_free(ptr noundef %10) #4
  %11 = getelementptr inbounds nuw i8, ptr %4, i64 8
  %12 = load ptr, ptr %11, align 8, !tbaa !16
  tail call void @X509_free(ptr noundef %12) #4
  %13 = getelementptr inbounds nuw i8, ptr %4, i64 32
  %14 = load ptr, ptr %13, align 8, !tbaa !19
  tail call void @OSSL_STACK_OF_X509_free(ptr noundef %14) #4
  %15 = getelementptr inbounds nuw i8, ptr %4, i64 40
  %16 = load ptr, ptr %15, align 8, !tbaa !20
  tail call void @OSSL_STACK_OF_X509_free(ptr noundef %16) #4
  %17 = getelementptr inbounds nuw i8, ptr %4, i64 88
  %18 = load ptr, ptr %17, align 8, !tbaa !28
  tail call void @OSSL_CMP_MSG_free(ptr noundef %18) #4
  tail call void @CRYPTO_free(ptr noundef nonnull %4, ptr noundef nonnull @.str, i32 noundef 48) #4
  br label %mock_srv_ctx_new.exit.thread

mock_srv_ctx_new.exit:                            ; preds = %6
  %19 = getelementptr inbounds nuw i8, ptr %4, i64 80
  store i32 -1, ptr %19, align 8, !tbaa !25
  %.not18 = icmp eq ptr %3, null
  br i1 %.not18, label %mock_srv_ctx_new.exit.thread, label %20

20:                                               ; preds = %mock_srv_ctx_new.exit
  %21 = tail call i32 @OSSL_CMP_SRV_CTX_init(ptr noundef nonnull %3, ptr noundef nonnull %4, ptr noundef nonnull @process_cert_request, ptr noundef nonnull @process_rr, ptr noundef nonnull @process_genm, ptr noundef nonnull @process_error, ptr noundef nonnull @process_certConf, ptr noundef nonnull @process_pollReq) #4
  %.not = icmp eq i32 %21, 0
  br i1 %.not, label %mock_srv_ctx_new.exit.thread, label %22

22:                                               ; preds = %20
  %23 = tail call i32 @OSSL_CMP_SRV_CTX_init_trans(ptr noundef nonnull %3, ptr noundef nonnull @delayed_delivery, ptr noundef nonnull @clean_transaction) #4
  %.not14 = icmp eq i32 %23, 0
  br i1 %.not14, label %mock_srv_ctx_new.exit.thread, label %24

mock_srv_ctx_new.exit.thread:                     ; preds = %2, %mock_srv_ctx_free.exit.i, %22, %20, %mock_srv_ctx_new.exit
  %.0.i17 = phi ptr [ %4, %22 ], [ %4, %20 ], [ %4, %mock_srv_ctx_new.exit ], [ null, %mock_srv_ctx_free.exit.i ], [ null, %2 ]
  tail call fastcc void @mock_srv_ctx_free(ptr noundef %.0.i17)
  tail call void @OSSL_CMP_SRV_CTX_free(ptr noundef %3) #4
  br label %24

24:                                               ; preds = %22, %mock_srv_ctx_new.exit.thread
  %.0 = phi ptr [ null, %mock_srv_ctx_new.exit.thread ], [ %3, %22 ]
  ret ptr %.0
}